target datalayout = "e-m:e-p270:32:32-p271:32:32-p272:64:64-i64:64-i128:128-f80:128-n8:16:32:64-S128"
target triple = "x86_64-pc-linux-gnu"

; Function Attrs: mustprogress nounwind uwtable
define hidden void @_ZN2cv8ximgproc10intrinsics11div_det_2x2EPfS2_S2_i(ptr noundef %0, ptr noundef %1, ptr noundef %2, i32 noundef %3) #7 {
  %5 = alloca ptr, align 8
  %6 = alloca ptr, align 8
  %7 = alloca ptr, align 8
  %8 = alloca i32, align 4
  %9 = alloca i32, align 4
  %10 = alloca float, align 4
  store ptr %0, ptr %5, align 8, !tbaa !68
  store ptr %1, ptr %6, align 8, !tbaa !68
  store ptr %2, ptr %7, align 8, !tbaa !68
  store i32 %3, ptr %8, align 4, !tbaa !10
  call void @llvm.lifetime.start.p0(i64 4, ptr %9) #3
  store i32 0, ptr %9, align 4, !tbaa !10
  br label %11

11:                                               ; preds = %61, %4
  %12 = load i32, ptr %9, align 4, !tbaa !10
  %13 = load i32, ptr %8, align 4, !tbaa !10
  %14 = icmp slt i32 %12, %13
  br i1 %14, label %15, label %64

15:                                               ; preds = %11
  call void @llvm.lifetime.start.p0(i64 4, ptr %10) #3
  %16 = load ptr, ptr %5, align 8, !tbaa !68
  %17 = load i32, ptr %9, align 4, !tbaa !10
  %18 = sext i32 %17 to i64
  %19 = getelementptr inbounds float, ptr %16, i64 %18
  %20 = load float, ptr %19, align 4, !tbaa !70
  %21 = load ptr, ptr %7, align 8, !tbaa !68
  %22 = load i32, ptr %9, align 4, !tbaa !10
  %23 = sext i32 %22 to i64
  %24 = getelementptr inbounds float, ptr %21, i64 %23
  %25 = load float, ptr %24, align 4, !tbaa !70
  %26 = load ptr, ptr %6, align 8, !tbaa !68
  %27 = load i32, ptr %9, align 4, !tbaa !10
  %28 = sext i32 %27 to i64
  %29 = getelementptr inbounds float, ptr %26, i64 %28
  %30 = load float, ptr %29, align 4, !tbaa !70
  %31 = load ptr, ptr %6, align 8, !tbaa !68
  %32 = load i32, ptr %9, align 4, !tbaa !10
  %33 = sext i32 %32 to i64
  %34 = getelementptr inbounds float, ptr %31, i64 %33
  %35 = load float, ptr %34, align 4, !tbaa !70
  %36 = fmul float %30, %35
  %37 = fneg float %36
  %38 = call float @llvm.fmuladd.f32(float %20, float %25, float %37)
  store float %38, ptr %10, align 4, !tbaa !70
  %39 = load float, ptr %10, align 4, !tbaa !70
  %40 = load ptr, ptr %5, align 8, !tbaa !68
  %41 = load i32, ptr %9, align 4, !tbaa !10
  %42 = sext i32 %41 to i64
  %43 = getelementptr inbounds float, ptr %40, i64 %42
  %44 = load float, ptr %43, align 4, !tbaa !70
  %45 = fdiv float %44, %39
  store float %45, ptr %43, align 4, !tbaa !70
  %46 = load float, ptr %10, align 4, !tbaa !70
  %47 = load ptr, ptr %7, align 8, !tbaa !68
  %48 = load i32, ptr %9, align 4, !tbaa !10
  %49 = sext i32 %48 to i64
  %50 = getelementptr inbounds float, ptr %47, i64 %49
  %51 = load float, ptr %50, align 4, !tbaa !70
  %52 = fdiv float %51, %46
  store float %52, ptr %50, align 4, !tbaa !70
  %53 = load float, ptr %10, align 4, !tbaa !70
  %54 = fneg float %53
  %55 = load ptr, ptr %6, align 8, !tbaa !68
  %56 = load i32, ptr %9, align 4, !tbaa !10
  %57 = sext i32 %56 to i64
  %58 = getelementptr inbounds float, ptr %55, i64 %57
  %59 = load float, ptr %58, align 4, !tbaa !70
  %60 = fdiv float %59, %54
  store float %60, ptr %58, align 4, !tbaa !70
  call void @llvm.lifetime.end.p0(i64 4, ptr %10) #3
  br label %61

61:                                               ; preds = %15
  %62 = load i32, ptr %9, align 4, !tbaa !10
  %63 = add nsw i32 %62, 1
  store i32 %63, ptr %9, align 4, !tbaa !10
  br label %11, !llvm.loop !84

64:                                               ; preds = %11
  call void @llvm.lifetime.end.p0(i64 4, ptr %9) #3
  ret void
}