; Function Attrs: mustprogress nofree norecurse nosync nounwind memory(argmem: readwrite) uwtable
define hidden void @_ZN2cv8ximgproc10intrinsics11div_det_2x2EPfS2_S2_i(ptr noundef captures(none) %0, ptr noundef captures(none) %1, ptr noundef captures(none) %2, i32 noundef %3) local_unnamed_addr #6 {
  %5 = icmp sgt i32 %3, 0
  br i1 %5, label %.lr.ph.preheader, label %._crit_edge

.lr.ph.preheader:                                 ; preds = %4
  %wide.trip.count = zext nneg i32 %3 to i64
  br label %.lr.ph

.lr.ph:                                           ; preds = %.lr.ph.preheader, %.lr.ph
  %indvars.iv = phi i64 [ 0, %.lr.ph.preheader ], [ %indvars.iv.next, %.lr.ph ]
  %6 = getelementptr inbounds nuw float, ptr %0, i64 %indvars.iv
  %7 = load float, ptr %6, align 4, !tbaa !51
  %8 = getelementptr inbounds nuw float, ptr %2, i64 %indvars.iv
  %9 = load float, ptr %8, align 4, !tbaa !51
  %10 = getelementptr inbounds nuw float, ptr %1, i64 %indvars.iv
  %11 = load float, ptr %10, align 4, !tbaa !51
  %12 = fneg float %11
  %13 = fmul float %11, %12
  %14 = tail call float @llvm.fmuladd.f32(float %7, float %9, float %13)
  %15 = fdiv float %7, %14
  store float %15, ptr %6, align 4, !tbaa !51
  %16 = load float, ptr %8, align 4, !tbaa !51
  %17 = fdiv float %16, %14
  store float %17, ptr %8, align 4, !tbaa !51
  %18 = fneg float %14
  %19 = load float, ptr %10, align 4, !tbaa !51
  %20 = fdiv float %19, %18
  store float %20, ptr %10, align 4, !tbaa !51
  %indvars.iv.next = add nuw nsw i64 %indvars.iv, 1
  %exitcond.not = icmp eq i64 %indvars.iv.next, %wide.trip.count
  br i1 %exitcond.not, label %._crit_edge, label %.lr.ph, !llvm.loop !65

._crit_edge:                                      ; preds = %.lr.ph, %4
  ret void
}